; Function Attrs: null_pointer_is_valid sspstrong uwtable
define internal i32 @netlogon_dissect_netrservergettrustinfo_reply(ptr noundef %0, i32 noundef %1, ptr noundef %2, ptr noundef %3, ptr noundef %4, ptr noundef %5) #0 {
  %7 = tail call i32 @dissect_ndr_pointer(ptr noundef %0, i32 noundef %1, ptr noundef %2, ptr noundef %3, ptr noundef %4, ptr noundef %5, ptr noundef nonnull @netlogon_dissect_AUTHENTICATOR, i32 noundef 1, ptr noundef nonnull @.str.1143, i32 noundef -1)
  %8 = tail call i32 @dissect_ndr_pointer(ptr noundef %0, i32 noundef %7, ptr noundef %2, ptr noundef %3, ptr noundef %4, ptr noundef %5, ptr noundef nonnull @netlogon_dissect_NT_OWF_PASSWORD, i32 noundef 1, ptr noundef nonnull @.str.1313, i32 noundef -1)
  %9 = tail call i32 @dissect_ndr_pointer(ptr noundef %0, i32 noundef %8, ptr noundef %2, ptr noundef %3, ptr noundef %4, ptr noundef %5, ptr noundef nonnull @netlogon_dissect_NT_OWF_PASSWORD, i32 noundef 1, ptr noundef nonnull @.str.1314, i32 noundef -1)
  %10 = tail call i32 @dissect_ndr_pointer(ptr noundef %0, i32 noundef %9, ptr noundef %2, ptr noundef %3, ptr noundef %4, ptr noundef %5, ptr noundef nonnull @netlogon_dissect_NL_GENERIC_RPC_DATA, i32 noundef 2, ptr noundef nonnull @.str.1316, i32 noundef -1)
  %11 = load i32, ptr @hf_netlogon_rc, align 4
  %12 = tail call i32 @dissect_ntstatus(ptr noundef %0, i32 noundef %10, ptr noundef %2, ptr noundef %3, ptr noundef %4, ptr noundef %5, i32 noundef %11, ptr noundef null)
  ret i32 %12
}